target datalayout = "e-m:e-p270:32:32-p271:32:32-p272:64:64-i64:64-i128:128-f80:128-n8:16:32:64-S128"
target triple = "x86_64-pc-linux-gnu"

%struct.ident_t = type { i32, i32, i32, i32, ptr }
%"class.ncnn::Mat" = type { ptr, ptr, i64, i32, ptr, i32, i32, i32, i32, i32, i64 }

@1 = private unnamed_addr constant %struct.ident_t { i32 0, i32 514, i32 0, i32 22, ptr @0 }, align 8

; Function Attrs: noinline noreturn nounwind uwtable
define linkonce_odr hidden void @__clang_call_terminate(ptr noundef %0) #9 comdat {
  %2 = call ptr @__cxa_begin_catch(ptr %0) #8
  call void @_ZSt9terminatev() #17
  unreachable
}

; Function Attrs: alwaysinline mustprogress nounwind uwtable
define linkonce_odr hidden noundef ptr @_ZN4ncnn3Mat3rowEi(ptr noundef nonnull align 8 dereferenceable(72) %0, i32 noundef %1) #5 comdat align 2 {
  %3 = alloca ptr, align 8
  %4 = alloca i32, align 4
  store ptr %0, ptr %3, align 8, !tbaa !9
  store i32 %1, ptr %4, align 4, !tbaa !13
  %5 = load ptr, ptr %3, align 8
  %6 = getelementptr inbounds nuw %"class.ncnn::Mat", ptr %5, i32 0, i32 0
  %7 = load ptr, ptr %6, align 8, !tbaa !54
  %8 = getelementptr inbounds nuw %"class.ncnn::Mat", ptr %5, i32 0, i32 6
  %9 = load i32, ptr %8, align 4, !tbaa !41
  %10 = sext i32 %9 to i64
  %11 = load i32, ptr %4, align 4, !tbaa !13
  %12 = sext i32 %11 to i64
  %13 = mul i64 %10, %12
  %14 = getelementptr inbounds nuw %"class.ncnn::Mat", ptr %5, i32 0, i32 2
  %15 = load i64, ptr %14, align 8, !tbaa !32
  %16 = mul i64 %13, %15
  %17 = getelementptr inbounds nuw i8, ptr %7, i64 %16
  ret ptr %17
}

; Function Attrs: alwaysinline mustprogress nounwind uwtable
define linkonce_odr hidden noundef ptr @_ZNK4ncnn3Mat3rowEi(ptr noundef nonnull align 8 dereferenceable(72) %0, i32 noundef %1) #5 comdat align 2 {
  %3 = alloca ptr, align 8
  %4 = alloca i32, align 4
  store ptr %0, ptr %3, align 8, !tbaa !9
  store i32 %1, ptr %4, align 4, !tbaa !13
  %5 = load ptr, ptr %3, align 8
  %6 = getelementptr inbounds nuw %"class.ncnn::Mat", ptr %5, i32 0, i32 0
  %7 = load ptr, ptr %6, align 8, !tbaa !54
  %8 = getelementptr inbounds nuw %"class.ncnn::Mat", ptr %5, i32 0, i32 6
  %9 = load i32, ptr %8, align 4, !tbaa !41
  %10 = sext i32 %9 to i64
  %11 = load i32, ptr %4, align 4, !tbaa !13
  %12 = sext i32 %11 to i64
  %13 = mul i64 %10, %12
  %14 = getelementptr inbounds nuw %"class.ncnn::Mat", ptr %5, i32 0, i32 2
  %15 = load i64, ptr %14, align 8, !tbaa !32
  %16 = mul i64 %13, %15
  %17 = getelementptr inbounds nuw i8, ptr %7, i64 %16
  ret ptr %17
}

; Function Attrs: alwaysinline norecurse nounwind uwtable
define internal void @_ZNK4ncnn15Packing_x86_avx7forwardERKNS_3MatERS1_RKNS_6OptionE.omp_outlined.11(ptr noalias noundef %0, ptr noalias noundef %1, ptr noundef nonnull align 4 dereferenceable(4) %2, ptr noundef nonnull align 8 dereferenceable(72) %3, ptr noundef nonnull align 8 dereferenceable(72) %4, ptr noundef nonnull align 4 dereferenceable(4) %5) #14 personality ptr @__gxx_personality_v0 {
  %7 = alloca ptr, align 8
  %8 = alloca ptr, align 8
  %9 = alloca ptr, align 8
  %10 = alloca ptr, align 8
  %11 = alloca ptr, align 8
  %12 = alloca ptr, align 8
  %13 = alloca ptr, align 8
  %14 = alloca ptr, align 8
  %15 = alloca i32, align 4
  %16 = alloca i32, align 4
  %17 = alloca i32, align 4
  %18 = alloca i32, align 4
  %19 = alloca i32, align 4
  %20 = alloca i32, align 4
  %21 = alloca i32, align 4
  %22 = alloca i32, align 4
  %23 = alloca i32, align 4
  %24 = alloca ptr, align 8
  %25 = alloca ptr, align 8
  %26 = alloca ptr, align 8
  %27 = alloca i32, align 4
  store ptr %0, ptr %7, align 8, !tbaa !56
  store ptr %1, ptr %8, align 8, !tbaa !56
  store ptr %2, ptr %9, align 8, !tbaa !56
  store ptr %3, ptr %10, align 8, !tbaa !9
  store ptr %4, ptr %11, align 8, !tbaa !9
  store ptr %5, ptr %12, align 8, !tbaa !56
  %28 = load ptr, ptr %9, align 8, !tbaa !56
  %29 = load ptr, ptr %10, align 8, !tbaa !9
  %30 = load ptr, ptr %11, align 8, !tbaa !9
  %31 = load ptr, ptr %12, align 8, !tbaa !56
  store ptr %29, ptr %13, align 8
  store ptr %30, ptr %14, align 8
  call void @llvm.lifetime.start.p0(i64 4, ptr %15) #8
  call void @llvm.lifetime.start.p0(i64 4, ptr %16) #8
  %32 = load i32, ptr %28, align 4, !tbaa !13
  store i32 %32, ptr %16, align 4, !tbaa !13
  call void @llvm.lifetime.start.p0(i64 4, ptr %17) #8
  %33 = load i32, ptr %16, align 4, !tbaa !13
  %34 = sub nsw i32 %33, 0
  %35 = sdiv i32 %34, 1
  %36 = sub nsw i32 %35, 1
  store i32 %36, ptr %17, align 4, !tbaa !13
  call void @llvm.lifetime.start.p0(i64 4, ptr %18) #8
  store i32 0, ptr %18, align 4, !tbaa !13
  call void @llvm.lifetime.end.p0(i64 4, ptr %18) #8
  %37 = load i32, ptr %16, align 4, !tbaa !13
  %38 = icmp slt i32 0, %37
  br i1 %38, label %39, label %181

39:                                               ; preds = %6
  call void @llvm.lifetime.start.p0(i64 4, ptr %19) #8
  store i32 0, ptr %19, align 4, !tbaa !13
  call void @llvm.lifetime.start.p0(i64 4, ptr %20) #8
  %40 = load i32, ptr %17, align 4, !tbaa !13
  store i32 %40, ptr %20, align 4, !tbaa !13
  call void @llvm.lifetime.start.p0(i64 4, ptr %21) #8
  store i32 1, ptr %21, align 4, !tbaa !13
  call void @llvm.lifetime.start.p0(i64 4, ptr %22) #8
  store i32 0, ptr %22, align 4, !tbaa !13
  call void @llvm.lifetime.start.p0(i64 4, ptr %23) #8
  %41 = load ptr, ptr %7, align 8
  %42 = load i32, ptr %41, align 4, !tbaa !13
  call void @__kmpc_for_static_init_4(ptr @1, i32 %42, i32 34, ptr %22, ptr %19, ptr %20, ptr %21, i32 1, i32 1)
  %43 = load i32, ptr %20, align 4, !tbaa !13
  %44 = load i32, ptr %17, align 4, !tbaa !13
  %45 = icmp sgt i32 %43, %44
  br i1 %45, label %46, label %48

46:                                               ; preds = %39
  %47 = load i32, ptr %17, align 4, !tbaa !13
  br label %50

48:                                               ; preds = %39
  %49 = load i32, ptr %20, align 4, !tbaa !13
  br label %50

50:                                               ; preds = %48, %46
  %51 = phi i32 [ %47, %46 ], [ %49, %48 ]
  store i32 %51, ptr %20, align 4, !tbaa !13
  %52 = load i32, ptr %19, align 4, !tbaa !13
  store i32 %52, ptr %15, align 4, !tbaa !13
  br label %53

53:                                               ; preds = %174, %50
  %54 = load i32, ptr %15, align 4, !tbaa !13
  %55 = load i32, ptr %20, align 4, !tbaa !13
  %56 = icmp sle i32 %54, %55
  br i1 %56, label %58, label %57

57:                                               ; preds = %53
  br label %177

58:                                               ; preds = %53
  %59 = load i32, ptr %15, align 4, !tbaa !13
  %60 = mul nsw i32 %59, 1
  %61 = add nsw i32 0, %60
  store i32 %61, ptr %23, align 4, !tbaa !13
  call void @llvm.lifetime.start.p0(i64 8, ptr %24) #8
  %62 = load ptr, ptr %13, align 8, !tbaa !9
  %63 = load i32, ptr %23, align 4, !tbaa !13
  %64 = invoke noundef ptr @_ZNK4ncnn3Mat3rowEi(ptr noundef nonnull align 8 dereferenceable(72) %62, i32 noundef %63)
          to label %65 unwind label %182

65:                                               ; preds = %58
  store ptr %64, ptr %24, align 8, !tbaa !57
  call void @llvm.lifetime.start.p0(i64 8, ptr %25) #8
  %66 = load ptr, ptr %14, align 8, !tbaa !9
  %67 = load i32, ptr %23, align 4, !tbaa !13
  %68 = mul nsw i32 %67, 2
  %69 = invoke noundef ptr @_ZN4ncnn3Mat3rowEi(ptr noundef nonnull align 8 dereferenceable(72) %66, i32 noundef %68)
          to label %70 unwind label %182

70:                                               ; preds = %65
  store ptr %69, ptr %25, align 8, !tbaa !57
  call void @llvm.lifetime.start.p0(i64 8, ptr %26) #8
  %71 = load ptr, ptr %14, align 8, !tbaa !9
  %72 = load i32, ptr %23, align 4, !tbaa !13
  %73 = mul nsw i32 %72, 2
  %74 = add nsw i32 %73, 1
  %75 = invoke noundef ptr @_ZN4ncnn3Mat3rowEi(ptr noundef nonnull align 8 dereferenceable(72) %71, i32 noundef %74)
          to label %76 unwind label %182

76:                                               ; preds = %70
  store ptr %75, ptr %26, align 8, !tbaa !57
  call void @llvm.lifetime.start.p0(i64 4, ptr %27) #8
  store i32 0, ptr %27, align 4, !tbaa !13
  br label %77

77:                                               ; preds = %169, %76
  %78 = load i32, ptr %27, align 4, !tbaa !13
  %79 = load i32, ptr %31, align 4, !tbaa !13
  %80 = icmp slt i32 %78, %79
  br i1 %80, label %82, label %81

81:                                               ; preds = %77
  call void @llvm.lifetime.end.p0(i64 4, ptr %27) #8
  br label %172

82:                                               ; preds = %77
  %83 = load ptr, ptr %24, align 8, !tbaa !57
  %84 = getelementptr inbounds float, ptr %83, i64 0
  %85 = load float, ptr %84, align 4, !tbaa !62
  %86 = load ptr, ptr %25, align 8, !tbaa !57
  %87 = getelementptr inbounds float, ptr %86, i64 0
  store float %85, ptr %87, align 4, !tbaa !62
  %88 = load ptr, ptr %24, align 8, !tbaa !57
  %89 = getelementptr inbounds float, ptr %88, i64 1
  %90 = load float, ptr %89, align 4, !tbaa !62
  %91 = load ptr, ptr %25, align 8, !tbaa !57
  %92 = getelementptr inbounds float, ptr %91, i64 1
  store float %90, ptr %92, align 4, !tbaa !62
  %93 = load ptr, ptr %24, align 8, !tbaa !57
  %94 = getelementptr inbounds float, ptr %93, i64 2
  %95 = load float, ptr %94, align 4, !tbaa !62
  %96 = load ptr, ptr %25, align 8, !tbaa !57
  %97 = getelementptr inbounds float, ptr %96, i64 2
  store float %95, ptr %97, align 4, !tbaa !62
  %98 = load ptr, ptr %24, align 8, !tbaa !57
  %99 = getelementptr inbounds float, ptr %98, i64 3
  %100 = load float, ptr %99, align 4, !tbaa !62
  %101 = load ptr, ptr %25, align 8, !tbaa !57
  %102 = getelementptr inbounds float, ptr %101, i64 3
  store float %100, ptr %102, align 4, !tbaa !62
  %103 = load ptr, ptr %24, align 8, !tbaa !57
  %104 = getelementptr inbounds float, ptr %103, i64 4
  %105 = load float, ptr %104, align 4, !tbaa !62
  %106 = load ptr, ptr %25, align 8, !tbaa !57
  %107 = getelementptr inbounds float, ptr %106, i64 4
  store float %105, ptr %107, align 4, !tbaa !62
  %108 = load ptr, ptr %24, align 8, !tbaa !57
  %109 = getelementptr inbounds float, ptr %108, i64 5
  %110 = load float, ptr %109, align 4, !tbaa !62
  %111 = load ptr, ptr %25, align 8, !tbaa !57
  %112 = getelementptr inbounds float, ptr %111, i64 5
  store float %110, ptr %112, align 4, !tbaa !62
  %113 = load ptr, ptr %24, align 8, !tbaa !57
  %114 = getelementptr inbounds float, ptr %113, i64 6
  %115 = load float, ptr %114, align 4, !tbaa !62
  %116 = load ptr, ptr %25, align 8, !tbaa !57
  %117 = getelementptr inbounds float, ptr %116, i64 6
  store float %115, ptr %117, align 4, !tbaa !62
  %118 = load ptr, ptr %24, align 8, !tbaa !57
  %119 = getelementptr inbounds float, ptr %118, i64 7
  %120 = load float, ptr %119, align 4, !tbaa !62
  %121 = load ptr, ptr %25, align 8, !tbaa !57
  %122 = getelementptr inbounds float, ptr %121, i64 7
  store float %120, ptr %122, align 4, !tbaa !62
  %123 = load ptr, ptr %24, align 8, !tbaa !57
  %124 = getelementptr inbounds float, ptr %123, i64 8
  %125 = load float, ptr %124, align 4, !tbaa !62
  %126 = load ptr, ptr %26, align 8, !tbaa !57
  %127 = getelementptr inbounds float, ptr %126, i64 0
  store float %125, ptr %127, align 4, !tbaa !62
  %128 = load ptr, ptr %24, align 8, !tbaa !57
  %129 = getelementptr inbounds float, ptr %128, i64 9
  %130 = load float, ptr %129, align 4, !tbaa !62
  %131 = load ptr, ptr %26, align 8, !tbaa !57
  %132 = getelementptr inbounds float, ptr %131, i64 1
  store float %130, ptr %132, align 4, !tbaa !62
  %133 = load ptr, ptr %24, align 8, !tbaa !57
  %134 = getelementptr inbounds float, ptr %133, i64 10
  %135 = load float, ptr %134, align 4, !tbaa !62
  %136 = load ptr, ptr %26, align 8, !tbaa !57
  %137 = getelementptr inbounds float, ptr %136, i64 2
  store float %135, ptr %137, align 4, !tbaa !62
  %138 = load ptr, ptr %24, align 8, !tbaa !57
  %139 = getelementptr inbounds float, ptr %138, i64 11
  %140 = load float, ptr %139, align 4, !tbaa !62
  %141 = load ptr, ptr %26, align 8, !tbaa !57
  %142 = getelementptr inbounds float, ptr %141, i64 3
  store float %140, ptr %142, align 4, !tbaa !62
  %143 = load ptr, ptr %24, align 8, !tbaa !57
  %144 = getelementptr inbounds float, ptr %143, i64 12
  %145 = load float, ptr %144, align 4, !tbaa !62
  %146 = load ptr, ptr %26, align 8, !tbaa !57
  %147 = getelementptr inbounds float, ptr %146, i64 4
  store float %145, ptr %147, align 4, !tbaa !62
  %148 = load ptr, ptr %24, align 8, !tbaa !57
  %149 = getelementptr inbounds float, ptr %148, i64 13
  %150 = load float, ptr %149, align 4, !tbaa !62
  %151 = load ptr, ptr %26, align 8, !tbaa !57
  %152 = getelementptr inbounds float, ptr %151, i64 5
  store float %150, ptr %152, align 4, !tbaa !62
  %153 = load ptr, ptr %24, align 8, !tbaa !57
  %154 = getelementptr inbounds float, ptr %153, i64 14
  %155 = load float, ptr %154, align 4, !tbaa !62
  %156 = load ptr, ptr %26, align 8, !tbaa !57
  %157 = getelementptr inbounds float, ptr %156, i64 6
  store float %155, ptr %157, align 4, !tbaa !62
  %158 = load ptr, ptr %24, align 8, !tbaa !57
  %159 = getelementptr inbounds float, ptr %158, i64 15
  %160 = load float, ptr %159, align 4, !tbaa !62
  %161 = load ptr, ptr %26, align 8, !tbaa !57
  %162 = getelementptr inbounds float, ptr %161, i64 7
  store float %160, ptr %162, align 4, !tbaa !62
  %163 = load ptr, ptr %24, align 8, !tbaa !57
  %164 = getelementptr inbounds float, ptr %163, i64 16
  store ptr %164, ptr %24, align 8, !tbaa !57
  %165 = load ptr, ptr %25, align 8, !tbaa !57
  %166 = getelementptr inbounds float, ptr %165, i64 8
  store ptr %166, ptr %25, align 8, !tbaa !57
  %167 = load ptr, ptr %26, align 8, !tbaa !57
  %168 = getelementptr inbounds float, ptr %167, i64 8
  store ptr %168, ptr %26, align 8, !tbaa !57
  br label %169

169:                                              ; preds = %82
  %170 = load i32, ptr %27, align 4, !tbaa !13
  %171 = add nsw i32 %170, 1
  store i32 %171, ptr %27, align 4, !tbaa !13
  br label %77, !llvm.loop !81

172:                                              ; preds = %81
  call void @llvm.lifetime.end.p0(i64 8, ptr %26) #8
  call void @llvm.lifetime.end.p0(i64 8, ptr %25) #8
  call void @llvm.lifetime.end.p0(i64 8, ptr %24) #8
  br label %173

173:                                              ; preds = %172
  br label %174

174:                                              ; preds = %173
  %175 = load i32, ptr %15, align 4, !tbaa !13
  %176 = add nsw i32 %175, 1
  store i32 %176, ptr %15, align 4, !tbaa !13
  br label %53

177:                                              ; preds = %57
  br label %178

178:                                              ; preds = %177
  %179 = load ptr, ptr %7, align 8
  %180 = load i32, ptr %179, align 4, !tbaa !13
  call void @__kmpc_for_static_fini(ptr @1, i32 %180)
  call void @llvm.lifetime.end.p0(i64 4, ptr %23) #8
  call void @llvm.lifetime.end.p0(i64 4, ptr %22) #8
  call void @llvm.lifetime.end.p0(i64 4, ptr %21) #8
  call void @llvm.lifetime.end.p0(i64 4, ptr %20) #8
  call void @llvm.lifetime.end.p0(i64 4, ptr %19) #8
  br label %181

181:                                              ; preds = %178, %6
  call void @llvm.lifetime.end.p0(i64 4, ptr %17) #8
  call void @llvm.lifetime.end.p0(i64 4, ptr %16) #8
  call void @llvm.lifetime.end.p0(i64 4, ptr %15) #8
  ret void

182:                                              ; preds = %70, %65, %58
  %183 = landingpad { ptr, i32 }
          catch ptr null
  %184 = extractvalue { ptr, i32 } %183, 0
  call void @__clang_call_terminate(ptr %184) #17
  unreachable
}