; Function Attrs: alwaysinline norecurse nounwind uwtable
define internal void @_ZNK4ncnn15Packing_x86_avx7forwardERKNS_3MatERS1_RKNS_6OptionE.omp_outlined.11(ptr noalias noundef readonly captures(none) %0, ptr noalias readnone captures(none) %1, ptr noundef nonnull readonly align 4 captures(none) dereferenceable(4) %2, ptr noundef nonnull readonly align 8 captures(none) dereferenceable(72) %3, ptr noundef nonnull readonly align 8 captures(none) dereferenceable(72) %4, ptr noundef nonnull readonly align 4 captures(none) dereferenceable(4) %5) #8 personality ptr @__gxx_personality_v0 {
  %7 = alloca i32, align 4
  %8 = alloca i32, align 4
  %9 = alloca i32, align 4
  %10 = alloca i32, align 4
  %11 = load i32, ptr %2, align 4, !tbaa !42
  %12 = icmp sgt i32 %11, 0
  br i1 %12, label %13, label %93

13:                                               ; preds = %6
  %14 = add nsw i32 %11, -1
  call void @llvm.lifetime.start.p0(i64 4, ptr nonnull %7) #6
  store i32 0, ptr %7, align 4, !tbaa !42
  call void @llvm.lifetime.start.p0(i64 4, ptr nonnull %8) #6
  store i32 %14, ptr %8, align 4, !tbaa !42
  call void @llvm.lifetime.start.p0(i64 4, ptr nonnull %9) #6
  store i32 1, ptr %9, align 4, !tbaa !42
  call void @llvm.lifetime.start.p0(i64 4, ptr nonnull %10) #6
  store i32 0, ptr %10, align 4, !tbaa !42
  %15 = load i32, ptr %0, align 4, !tbaa !42
  call void @__kmpc_for_static_init_4(ptr nonnull @1, i32 %15, i32 34, ptr nonnull %10, ptr nonnull %7, ptr nonnull %8, ptr nonnull %9, i32 1, i32 1)
  %16 = load i32, ptr %8, align 4, !tbaa !42
  %17 = call i32 @llvm.smin.i32(i32 %16, i32 %14)
  store i32 %17, ptr %8, align 4, !tbaa !42
  %18 = load i32, ptr %7, align 4, !tbaa !42
  %.not64 = icmp sgt i32 %18, %17
  br i1 %.not64, label %._crit_edge68, label %.lr.ph67

.lr.ph67:                                         ; preds = %13
  %19 = load ptr, ptr %3, align 8, !tbaa !33
  %20 = getelementptr inbounds nuw i8, ptr %3, i64 44
  %21 = load i32, ptr %20, align 4, !tbaa !38
  %22 = sext i32 %21 to i64
  %23 = getelementptr inbounds nuw i8, ptr %3, i64 16
  %24 = load i64, ptr %23, align 8, !tbaa !13
  %factor.op.mul = mul i64 %24, %22
  %25 = load ptr, ptr %4, align 8, !tbaa !33
  %26 = getelementptr inbounds nuw i8, ptr %4, i64 44
  %27 = load i32, ptr %26, align 4, !tbaa !38
  %28 = sext i32 %27 to i64
  %29 = getelementptr inbounds nuw i8, ptr %4, i64 16
  %30 = load i64, ptr %29, align 8, !tbaa !13
  %31 = mul i64 %30, %28
  %32 = load i32, ptr %5, align 4, !tbaa !42
  %33 = icmp sgt i32 %32, 0
  br i1 %33, label %.lr.ph.us.preheader, label %._crit_edge68

.lr.ph.us.preheader:                              ; preds = %.lr.ph67
  %34 = sext i32 %18 to i64
  %35 = add nsw i32 %17, 1
  br label %.lr.ph.us

.lr.ph.us:                                        ; preds = %.lr.ph.us.preheader, %._crit_edge.us
  %indvars.iv = phi i64 [ %34, %.lr.ph.us.preheader ], [ %indvars.iv.next, %._crit_edge.us ]
  %.reass.us = mul i64 %factor.op.mul, %indvars.iv
  %36 = getelementptr inbounds nuw i8, ptr %19, i64 %.reass.us
  %37 = shl nsw i64 %indvars.iv, 1
  %38 = mul i64 %31, %37
  %39 = getelementptr inbounds nuw i8, ptr %25, i64 %38
  %40 = or disjoint i64 %37, 1
  %41 = mul i64 %31, %40
  %42 = getelementptr inbounds nuw i8, ptr %25, i64 %41
  br label %43

43:                                               ; preds = %.lr.ph.us, %43
  %.063.us = phi i32 [ 0, %.lr.ph.us ], [ %92, %43 ]
  %.05662.us = phi ptr [ %42, %.lr.ph.us ], [ %91, %43 ]
  %.05761.us = phi ptr [ %39, %.lr.ph.us ], [ %90, %43 ]
  %.05860.us = phi ptr [ %36, %.lr.ph.us ], [ %89, %43 ]
  %44 = load float, ptr %.05860.us, align 4, !tbaa !50
  store float %44, ptr %.05761.us, align 4, !tbaa !50
  %45 = getelementptr inbounds nuw i8, ptr %.05860.us, i64 4
  %46 = load float, ptr %45, align 4, !tbaa !50
  %47 = getelementptr inbounds nuw i8, ptr %.05761.us, i64 4
  store float %46, ptr %47, align 4, !tbaa !50
  %48 = getelementptr inbounds nuw i8, ptr %.05860.us, i64 8
  %49 = load float, ptr %48, align 4, !tbaa !50
  %50 = getelementptr inbounds nuw i8, ptr %.05761.us, i64 8
  store float %49, ptr %50, align 4, !tbaa !50
  %51 = getelementptr inbounds nuw i8, ptr %.05860.us, i64 12
  %52 = load float, ptr %51, align 4, !tbaa !50
  %53 = getelementptr inbounds nuw i8, ptr %.05761.us, i64 12
  store float %52, ptr %53, align 4, !tbaa !50
  %54 = getelementptr inbounds nuw i8, ptr %.05860.us, i64 16
  %55 = load float, ptr %54, align 4, !tbaa !50
  %56 = getelementptr inbounds nuw i8, ptr %.05761.us, i64 16
  store float %55, ptr %56, align 4, !tbaa !50
  %57 = getelementptr inbounds nuw i8, ptr %.05860.us, i64 20
  %58 = load float, ptr %57, align 4, !tbaa !50
  %59 = getelementptr inbounds nuw i8, ptr %.05761.us, i64 20
  store float %58, ptr %59, align 4, !tbaa !50
  %60 = getelementptr inbounds nuw i8, ptr %.05860.us, i64 24
  %61 = load float, ptr %60, align 4, !tbaa !50
  %62 = getelementptr inbounds nuw i8, ptr %.05761.us, i64 24
  store float %61, ptr %62, align 4, !tbaa !50
  %63 = getelementptr inbounds nuw i8, ptr %.05860.us, i64 28
  %64 = load float, ptr %63, align 4, !tbaa !50
  %65 = getelementptr inbounds nuw i8, ptr %.05761.us, i64 28
  store float %64, ptr %65, align 4, !tbaa !50
  %66 = getelementptr inbounds nuw i8, ptr %.05860.us, i64 32
  %67 = load float, ptr %66, align 4, !tbaa !50
  store float %67, ptr %.05662.us, align 4, !tbaa !50
  %68 = getelementptr inbounds nuw i8, ptr %.05860.us, i64 36
  %69 = load float, ptr %68, align 4, !tbaa !50
  %70 = getelementptr inbounds nuw i8, ptr %.05662.us, i64 4
  store float %69, ptr %70, align 4, !tbaa !50
  %71 = getelementptr inbounds nuw i8, ptr %.05860.us, i64 40
  %72 = load float, ptr %71, align 4, !tbaa !50
  %73 = getelementptr inbounds nuw i8, ptr %.05662.us, i64 8
  store float %72, ptr %73, align 4, !tbaa !50
  %74 = getelementptr inbounds nuw i8, ptr %.05860.us, i64 44
  %75 = load float, ptr %74, align 4, !tbaa !50
  %76 = getelementptr inbounds nuw i8, ptr %.05662.us, i64 12
  store float %75, ptr %76, align 4, !tbaa !50
  %77 = getelementptr inbounds nuw i8, ptr %.05860.us, i64 48
  %78 = load float, ptr %77, align 4, !tbaa !50
  %79 = getelementptr inbounds nuw i8, ptr %.05662.us, i64 16
  store float %78, ptr %79, align 4, !tbaa !50
  %80 = getelementptr inbounds nuw i8, ptr %.05860.us, i64 52
  %81 = load float, ptr %80, align 4, !tbaa !50
  %82 = getelementptr inbounds nuw i8, ptr %.05662.us, i64 20
  store float %81, ptr %82, align 4, !tbaa !50
  %83 = getelementptr inbounds nuw i8, ptr %.05860.us, i64 56
  %84 = load float, ptr %83, align 4, !tbaa !50
  %85 = getelementptr inbounds nuw i8, ptr %.05662.us, i64 24
  store float %84, ptr %85, align 4, !tbaa !50
  %86 = getelementptr inbounds nuw i8, ptr %.05860.us, i64 60
  %87 = load float, ptr %86, align 4, !tbaa !50
  %88 = getelementptr inbounds nuw i8, ptr %.05662.us, i64 28
  store float %87, ptr %88, align 4, !tbaa !50
  %89 = getelementptr inbounds nuw i8, ptr %.05860.us, i64 64
  %90 = getelementptr inbounds nuw i8, ptr %.05761.us, i64 32
  %91 = getelementptr inbounds nuw i8, ptr %.05662.us, i64 32
  %92 = add nuw nsw i32 %.063.us, 1
  %exitcond.not = icmp eq i32 %92, %32
  br i1 %exitcond.not, label %._crit_edge.us, label %43, !llvm.loop !68

._crit_edge.us:                                   ; preds = %43
  %indvars.iv.next = add nsw i64 %indvars.iv, 1
  %lftr.wideiv = trunc i64 %indvars.iv.next to i32
  %exitcond71.not = icmp eq i32 %35, %lftr.wideiv
  br i1 %exitcond71.not, label %._crit_edge68, label %.lr.ph.us

._crit_edge68:                                    ; preds = %._crit_edge.us, %.lr.ph67, %13
  call void @__kmpc_for_static_fini(ptr nonnull @1, i32 %15)
  call void @llvm.lifetime.end.p0(i64 4, ptr nonnull %10) #6
  call void @llvm.lifetime.end.p0(i64 4, ptr nonnull %9) #6
  call void @llvm.lifetime.end.p0(i64 4, ptr nonnull %8) #6
  call void @llvm.lifetime.end.p0(i64 4, ptr nonnull %7) #6
  br label %93

93:                                               ; preds = %._crit_edge68, %6
  ret void
}